; Function Attrs: mustprogress uwtable
define i32 @Z3_get_error_code(ptr noundef %0) local_unnamed_addr #3 personality ptr @__gxx_personality_v0 {
  %2 = atomicrmw xchg ptr @g_z3_log_enabled, i8 0 seq_cst, align 1
  %3 = trunc i8 %2 to i1
  br i1 %3, label %4, label %6

4:                                                ; preds = %1
  invoke void @_Z21log_Z3_get_error_codeP11_Z3_context(ptr noundef %0)
          to label %9 unwind label %_ZN10z3_log_ctxD2Ev.exit

_ZN10z3_log_ctxD2Ev.exit:                         ; preds = %4
  %5 = landingpad { ptr, i32 }
          cleanup
  store atomic i8 1, ptr @g_z3_log_enabled seq_cst, align 1
  resume { ptr, i32 } %5

6:                                                ; preds = %1
  %7 = getelementptr inbounds nuw i8, ptr %0, i64 1568
  %8 = load i32, ptr %7, align 8, !tbaa !248
  br label %_ZN10z3_log_ctxD2Ev.exit3

9:                                                ; preds = %4
  %10 = getelementptr inbounds nuw i8, ptr %0, i64 1568
  %11 = load i32, ptr %10, align 8, !tbaa !248
  store atomic i8 1, ptr @g_z3_log_enabled seq_cst, align 1
  br label %_ZN10z3_log_ctxD2Ev.exit3

_ZN10z3_log_ctxD2Ev.exit3:                        ; preds = %6, %9
  %12 = phi i32 [ %8, %6 ], [ %11, %9 ]
  ret i32 %12
}